(lp0
(S'cppflags'
p1
ccopy_reg
_reconstructor
p2
(cino.utils
SpaceList
p3
c__builtin__
list
p4
(lp5
S'-mmcu=atmega328p'
p6
aS'-DF_CPU=16000000L'
p7
aS'-DARDUINO=105'
p8
aS'-I/Applications/Arduino.app/Contents/Resources/Java/hardware/arduino/cores/arduino'
p9
aS'-ffunction-sections'
p10
aS'-fdata-sections'
p11
aS'-g'
p12
aS'-Os'
p13
aS'-w'
p14
aS'-I/Applications/Arduino.app/Contents/Resources/Java/hardware/arduino/variants/standard'
p15
aS'-Ilib/arduinoMaxbotix'
p16
aS'-I/Applications/Arduino.app/Contents/Resources/Java/hardware/arduino/cores/arduino'
p17
aS'-I/Applications/Arduino.app/Contents/Resources/Java/hardware/arduino/cores/arduino/avr-libc'
p18
atp19
Rp20
tp21
a(S'arduino_variants_dir'
p22
S'/Applications/Arduino.app/Contents/Resources/Java/hardware/arduino/variants'
p23
tp24
a(S'version.txt'
p25
S'/Applications/Arduino.app/Contents/Resources/Java/lib/version.txt'
p26
tp27
a(S'used_libs'
p28
(lp29
S'lib/arduinoMaxbotix'
p30
aS'/Applications/Arduino.app/Contents/Resources/Java/hardware/arduino/cores/arduino'
p31
atp32
a(S'cxx'
p33
S'/Applications/Arduino.app/Contents/Resources/Java/hardware/tools/avr/bin/avr-g++'
p34
tp35
a(S'make'
p36
S'/Applications/Arduino.app/Contents/Resources/Java/hardware/tools/avr/bin/make'
p37
tp38
a(S'build_dir'
p39
S'.build/uno'
p40
tp41
a(S'arduino_core_dir'
p42
g31
tp43
a(S'boards.txt'
p44
(lp45
S'/Applications/Arduino.app/Contents/Resources/Java/hardware/arduino/boards.txt'
p46
atp47
a(S'cxxflags'
p48
g2
(g3
g4
(lp49
S'-fno-exceptions'
p50
atp51
Rp52
tp53
a(S'cc'
p54
S'/Applications/Arduino.app/Contents/Resources/Java/hardware/tools/avr/bin/avr-gcc'
p55
tp56
a(S'deps'
p57
g2
(g3
g4
(lp58
S'.build/uno/src/dependencies.d'
p59
aS'.build/uno/arduino/dependencies.d'
p60
aS'.build/uno/arduinoMaxbotix/dependencies.d'
p61
atp62
Rp63
tp64
a(S'ar'
p65
S'/Applications/Arduino.app/Contents/Resources/Java/hardware/tools/avr/bin/avr-ar'
p66
tp67
a(S'names'
p68
(dp69
S'cpp'
p70
S'%s.cpp'
p71
sS'obj'
p72
S'%s.o'
p73
sS'deps'
p74
S'%s.d'
p75
sS'lib'
p76
S'lib%s.a'
p77
stp78
a(S'cflags'
p79
g2
(g3
g4
(lp80
tp81
Rp82
tp83
a(S'arduino_libraries_dir'
p84
S'/Applications/Arduino.app/Contents/Resources/Java/libraries'
p85
tp86
a(S'arduino_lib_version'
p87
g2
(cino.environment
Version
p88
c__builtin__
tuple
p89
(I1
I0
I5
tp90
tp91
Rp92
tp93
a(S'objcopy'
p94
S'/Applications/Arduino.app/Contents/Resources/Java/hardware/tools/avr/bin/avr-objcopy'
p95
tp96
a(S'board_models'
p97
cino.environment
BoardModels
p98
((lp99
(lp100
S'uno'
p101
a(dp102
S'bootloader'
p103
(dp104
S'extended_fuses'
p105
S'0x05'
p106
sS'high_fuses'
p107
S'0xde'
p108
sS'low_fuses'
p109
S'0xff'
p110
sS'lock_bits'
p111
S'0x0F'
p112
sS'file'
p113
S'optiboot_atmega328.hex'
p114
sS'path'
p115
S'optiboot'
p116
sS'unlock_bits'
p117
S'0x3F'
p118
ssS'upload'
p119
(dp120
S'speed'
p121
S'115200'
p122
sS'maximum_size'
p123
S'32256'
p124
sS'protocol'
p125
S'arduino'
p126
ssS'build'
p127
(dp128
S'core'
p129
S'arduino'
p130
sS'mcu'
p131
S'atmega328p'
p132
sS'f_cpu'
p133
S'16000000L'
p134
sS'variant'
p135
S'standard'
p136
ssS'name'
p137
S'Arduino Uno'
p138
sS'_coredir'
p139
S'/Applications/Arduino.app/Contents/Resources/Java/hardware/arduino'
p140
saa(lp141
S'atmega328'
p142
a(dp143
S'bootloader'
p144
(dp145
S'extended_fuses'
p146
S'0x05'
p147
sS'high_fuses'
p148
S'0xDA'
p149
sS'low_fuses'
p150
S'0xFF'
p151
sS'lock_bits'
p152
S'0x0F'
p153
sS'file'
p154
S'ATmegaBOOT_168_atmega328.hex'
p155
sS'path'
p156
S'atmega'
p157
sS'unlock_bits'
p158
S'0x3F'
p159
ssS'upload'
p160
(dp161
S'speed'
p162
S'57600'
p163
sS'maximum_size'
p164
S'30720'
p165
sS'protocol'
p166
S'arduino'
p167
ssS'build'
p168
(dp169
S'core'
p170
S'arduino'
p171
sS'mcu'
p172
S'atmega328p'
p173
sS'f_cpu'
p174
S'16000000L'
p175
sS'variant'
p176
S'standard'
p177
ssS'name'
p178
S'Arduino Duemilanove w/ ATmega328'
p179
sg139
S'/Applications/Arduino.app/Contents/Resources/Java/hardware/arduino'
p180
saa(lp181
S'diecimila'
p182
a(dp183
S'bootloader'
p184
(dp185
S'extended_fuses'
p186
S'0x00'
p187
sS'high_fuses'
p188
S'0xdd'
p189
sS'low_fuses'
p190
S'0xff'
p191
sS'lock_bits'
p192
S'0x0F'
p193
sS'file'
p194
S'ATmegaBOOT_168_diecimila.hex'
p195
sS'path'
p196
S'atmega'
p197
sS'unlock_bits'
p198
S'0x3F'
p199
ssS'upload'
p200
(dp201
S'speed'
p202
S'19200'
p203
sS'maximum_size'
p204
S'14336'
p205
sS'protocol'
p206
S'arduino'
p207
ssS'build'
p208
(dp209
S'core'
p210
S'arduino'
p211
sS'mcu'
p212
S'atmega168'
p213
sS'f_cpu'
p214
S'16000000L'
p215
sS'variant'
p216
S'standard'
p217
ssS'name'
p218
S'Arduino Diecimila or Duemilanove w/ ATmega168'
p219
sg139
S'/Applications/Arduino.app/Contents/Resources/Java/hardware/arduino'
p220
saa(lp221
S'nano328'
p222
a(dp223
S'bootloader'
p224
(dp225
S'extended_fuses'
p226
S'0x05'
p227
sS'high_fuses'
p228
S'0xDA'
p229
sS'low_fuses'
p230
S'0xFF'
p231
sS'lock_bits'
p232
S'0x0F'
p233
sS'file'
p234
S'ATmegaBOOT_168_atmega328.hex'
p235
sS'path'
p236
S'atmega'
p237
sS'unlock_bits'
p238
S'0x3F'
p239
ssS'upload'
p240
(dp241
S'speed'
p242
S'57600'
p243
sS'maximum_size'
p244
S'30720'
p245
sS'protocol'
p246
S'arduino'
p247
ssS'build'
p248
(dp249
S'core'
p250
S'arduino'
p251
sS'mcu'
p252
S'atmega328p'
p253
sS'f_cpu'
p254
S'16000000L'
p255
sS'variant'
p256
S'eightanaloginputs'
p257
ssS'name'
p258
S'Arduino Nano w/ ATmega328'
p259
sg139
S'/Applications/Arduino.app/Contents/Resources/Java/hardware/arduino'
p260
saa(lp261
S'nano'
p262
a(dp263
S'bootloader'
p264
(dp265
S'extended_fuses'
p266
S'0x00'
p267
sS'high_fuses'
p268
S'0xdd'
p269
sS'low_fuses'
p270
S'0xff'
p271
sS'lock_bits'
p272
S'0x0F'
p273
sS'file'
p274
S'ATmegaBOOT_168_diecimila.hex'
p275
sS'path'
p276
S'atmega'
p277
sS'unlock_bits'
p278
S'0x3F'
p279
ssS'upload'
p280
(dp281
S'speed'
p282
S'19200'
p283
sS'maximum_size'
p284
S'14336'
p285
sS'protocol'
p286
S'arduino'
p287
ssS'build'
p288
(dp289
S'core'
p290
S'arduino'
p291
sS'mcu'
p292
S'atmega168'
p293
sS'f_cpu'
p294
S'16000000L'
p295
sS'variant'
p296
S'eightanaloginputs'
p297
ssS'name'
p298
S'Arduino Nano w/ ATmega168'
p299
sg139
S'/Applications/Arduino.app/Contents/Resources/Java/hardware/arduino'
p300
saa(lp301
S'mega2560'
p302
a(dp303
S'bootloader'
p304
(dp305
S'extended_fuses'
p306
S'0xFD'
p307
sS'high_fuses'
p308
S'0xD8'
p309
sS'low_fuses'
p310
S'0xFF'
p311
sS'lock_bits'
p312
S'0x0F'
p313
sS'file'
p314
S'stk500boot_v2_mega2560.hex'
p315
sS'path'
p316
S'stk500v2'
p317
sS'unlock_bits'
p318
S'0x3F'
p319
ssS'upload'
p320
(dp321
S'speed'
p322
S'115200'
p323
sS'maximum_size'
p324
S'258048'
p325
sS'protocol'
p326
S'wiring'
p327
ssS'build'
p328
(dp329
S'core'
p330
S'arduino'
p331
sS'mcu'
p332
S'atmega2560'
p333
sS'f_cpu'
p334
S'16000000L'
p335
sS'variant'
p336
S'mega'
p337
ssS'name'
p338
S'Arduino Mega 2560 or Mega ADK'
p339
sg139
S'/Applications/Arduino.app/Contents/Resources/Java/hardware/arduino'
p340
saa(lp341
S'mega'
p342
a(dp343
S'bootloader'
p344
(dp345
S'extended_fuses'
p346
S'0xF5'
p347
sS'high_fuses'
p348
S'0xDA'
p349
sS'low_fuses'
p350
S'0xFF'
p351
sS'lock_bits'
p352
S'0x0F'
p353
sS'file'
p354
S'ATmegaBOOT_168_atmega1280.hex'
p355
sS'path'
p356
S'atmega'
p357
sS'unlock_bits'
p358
S'0x3F'
p359
ssS'upload'
p360
(dp361
S'speed'
p362
S'57600'
p363
sS'maximum_size'
p364
S'126976'
p365
sS'protocol'
p366
S'arduino'
p367
ssS'build'
p368
(dp369
S'core'
p370
S'arduino'
p371
sS'mcu'
p372
S'atmega1280'
p373
sS'f_cpu'
p374
S'16000000L'
p375
sS'variant'
p376
S'mega'
p377
ssS'name'
p378
S'Arduino Mega (ATmega1280)'
p379
sg139
S'/Applications/Arduino.app/Contents/Resources/Java/hardware/arduino'
p380
saa(lp381
S'leonardo'
p382
a(dp383
S'bootloader'
p384
(dp385
S'extended_fuses'
p386
S'0xcb'
p387
sS'high_fuses'
p388
S'0xd8'
p389
sS'low_fuses'
p390
S'0xff'
p391
sS'lock_bits'
p392
S'0x2F'
p393
sS'file'
p394
S'Caterina-Leonardo.hex'
p395
sS'path'
p396
S'caterina'
p397
sS'unlock_bits'
p398
S'0x3F'
p399
ssS'upload'
p400
(dp401
S'speed'
p402
S'57600'
p403
sS'maximum_size'
p404
S'28672'
p405
sS'protocol'
p406
S'avr109'
p407
sS'disable_flushing'
p408
S'true'
p409
ssS'build'
p410
(dp411
S'core'
p412
S'arduino'
p413
sS'f_cpu'
p414
S'16000000L'
p415
sS'vid'
p416
S'0x2341'
p417
sS'pid'
p418
S'0x8036'
p419
sS'variant'
p420
S'leonardo'
p421
sS'mcu'
p422
S'atmega32u4'
p423
ssS'name'
p424
S'Arduino Leonardo'
p425
sg139
S'/Applications/Arduino.app/Contents/Resources/Java/hardware/arduino'
p426
saa(lp427
S'esplora'
p428
a(dp429
S'bootloader'
p430
(dp431
S'extended_fuses'
p432
S'0xcb'
p433
sS'high_fuses'
p434
S'0xd8'
p435
sS'low_fuses'
p436
S'0xff'
p437
sS'lock_bits'
p438
S'0x2F'
p439
sS'file'
p440
S'Caterina-Esplora.hex'
p441
sS'path'
p442
S'caterina'
p443
sS'unlock_bits'
p444
S'0x3F'
p445
ssS'upload'
p446
(dp447
S'speed'
p448
S'57600'
p449
sS'maximum_size'
p450
S'28672'
p451
sS'protocol'
p452
S'avr109'
p453
sS'disable_flushing'
p454
S'true'
p455
ssS'build'
p456
(dp457
S'core'
p458
S'arduino'
p459
sS'f_cpu'
p460
S'16000000L'
p461
sS'vid'
p462
S'0x2341'
p463
sS'pid'
p464
S'0x803C'
p465
sS'variant'
p466
S'leonardo'
p467
sS'mcu'
p468
S'atmega32u4'
p469
ssS'name'
p470
S'Arduino Esplora'
p471
sg139
S'/Applications/Arduino.app/Contents/Resources/Java/hardware/arduino'
p472
saa(lp473
S'micro'
p474
a(dp475
S'bootloader'
p476
(dp477
S'extended_fuses'
p478
S'0xcb'
p479
sS'high_fuses'
p480
S'0xd8'
p481
sS'low_fuses'
p482
S'0xff'
p483
sS'lock_bits'
p484
S'0x2F'
p485
sS'file'
p486
S'Caterina-Micro.hex'
p487
sS'path'
p488
S'caterina'
p489
sS'unlock_bits'
p490
S'0x3F'
p491
ssS'upload'
p492
(dp493
S'speed'
p494
S'57600'
p495
sS'maximum_size'
p496
S'28672'
p497
sS'protocol'
p498
S'avr109'
p499
sS'disable_flushing'
p500
S'true'
p501
ssS'build'
p502
(dp503
S'core'
p504
S'arduino'
p505
sS'f_cpu'
p506
S'16000000L'
p507
sS'vid'
p508
S'0x2341'
p509
sS'pid'
p510
S'0x8037'
p511
sS'variant'
p512
S'micro'
p513
sS'mcu'
p514
S'atmega32u4'
p515
ssS'name'
p516
S'Arduino Micro'
p517
sg139
S'/Applications/Arduino.app/Contents/Resources/Java/hardware/arduino'
p518
saa(lp519
S'mini328'
p520
a(dp521
S'bootloader'
p522
(dp523
S'extended_fuses'
p524
S'0x05'
p525
sS'high_fuses'
p526
S'0xd8'
p527
sS'low_fuses'
p528
S'0xff'
p529
sS'lock_bits'
p530
S'0x0F'
p531
sS'file'
p532
S'optiboot_atmega328-Mini.hex'
p533
sS'path'
p534
S'optiboot'
p535
sS'unlock_bits'
p536
S'0x3F'
p537
ssS'upload'
p538
(dp539
S'speed'
p540
S'115200'
p541
sS'maximum_size'
p542
S'28672'
p543
sS'protocol'
p544
S'arduino'
p545
ssS'build'
p546
(dp547
S'core'
p548
S'arduino'
p549
sS'mcu'
p550
S'atmega328p'
p551
sS'f_cpu'
p552
S'16000000L'
p553
sS'variant'
p554
S'eightanaloginputs'
p555
ssS'name'
p556
S'Arduino Mini w/ ATmega328'
p557
sg139
S'/Applications/Arduino.app/Contents/Resources/Java/hardware/arduino'
p558
saa(lp559
S'mini'
p560
a(dp561
S'bootloader'
p562
(dp563
S'extended_fuses'
p564
S'0x00'
p565
sS'high_fuses'
p566
S'0xdd'
p567
sS'low_fuses'
p568
S'0xff'
p569
sS'lock_bits'
p570
S'0x0F'
p571
sS'file'
p572
S'ATmegaBOOT_168_ng.hex'
p573
sS'path'
p574
S'atmega'
p575
sS'unlock_bits'
p576
S'0x3F'
p577
ssS'upload'
p578
(dp579
S'speed'
p580
S'19200'
p581
sS'maximum_size'
p582
S'14336'
p583
sS'protocol'
p584
S'arduino'
p585
ssS'build'
p586
(dp587
S'core'
p588
S'arduino'
p589
sS'mcu'
p590
S'atmega168'
p591
sS'f_cpu'
p592
S'16000000L'
p593
sS'variant'
p594
S'eightanaloginputs'
p595
ssS'name'
p596
S'Arduino Mini w/ ATmega168'
p597
sg139
S'/Applications/Arduino.app/Contents/Resources/Java/hardware/arduino'
p598
saa(lp599
S'ethernet'
p600
a(dp601
S'bootloader'
p602
(dp603
S'extended_fuses'
p604
S'0x05'
p605
sS'high_fuses'
p606
S'0xde'
p607
sS'low_fuses'
p608
S'0xff'
p609
sS'lock_bits'
p610
S'0x0F'
p611
sS'file'
p612
S'optiboot_atmega328.hex'
p613
sS'path'
p614
S'optiboot'
p615
sS'unlock_bits'
p616
S'0x3F'
p617
ssS'upload'
p618
(dp619
S'speed'
p620
S'115200'
p621
sS'maximum_size'
p622
S'32256'
p623
sS'protocol'
p624
S'arduino'
p625
ssS'build'
p626
(dp627
S'f_cpu'
p628
S'16000000L'
p629
sS'mcu'
p630
S'atmega328p'
p631
sS'variant'
p632
S'standard'
p633
sS'core'
p634
S'arduino'
p635
ssS'name'
p636
S'Arduino Ethernet'
p637
sg139
S'/Applications/Arduino.app/Contents/Resources/Java/hardware/arduino'
p638
saa(lp639
S'fio'
p640
a(dp641
S'bootloader'
p642
(dp643
S'extended_fuses'
p644
S'0x05'
p645
sS'high_fuses'
p646
S'0xDA'
p647
sS'low_fuses'
p648
S'0xFF'
p649
sS'lock_bits'
p650
S'0x0F'
p651
sS'file'
p652
S'ATmegaBOOT_168_atmega328_pro_8MHz.hex'
p653
sS'path'
p654
S'arduino:atmega'
p655
sS'unlock_bits'
p656
S'0x3F'
p657
ssS'upload'
p658
(dp659
S'speed'
p660
S'57600'
p661
sS'maximum_size'
p662
S'30720'
p663
sS'protocol'
p664
S'arduino'
p665
ssS'build'
p666
(dp667
S'core'
p668
S'arduino'
p669
sS'mcu'
p670
S'atmega328p'
p671
sS'f_cpu'
p672
S'8000000L'
p673
sS'variant'
p674
S'eightanaloginputs'
p675
ssS'name'
p676
S'Arduino Fio'
p677
sg139
S'/Applications/Arduino.app/Contents/Resources/Java/hardware/arduino'
p678
saa(lp679
S'bt328'
p680
a(dp681
S'bootloader'
p682
(dp683
S'extended_fuses'
p684
S'0x05'
p685
sS'high_fuses'
p686
S'0xd8'
p687
sS'low_fuses'
p688
S'0xff'
p689
sS'lock_bits'
p690
S'0x0F'
p691
sS'file'
p692
S'ATmegaBOOT_168_atmega328_bt.hex'
p693
sS'path'
p694
S'bt'
p695
sS'unlock_bits'
p696
S'0x3F'
p697
ssS'upload'
p698
(dp699
S'speed'
p700
S'19200'
p701
sS'maximum_size'
p702
S'28672'
p703
sS'protocol'
p704
S'arduino'
p705
sS'disable_flushing'
p706
S'true'
p707
ssS'build'
p708
(dp709
S'core'
p710
S'arduino'
p711
sS'mcu'
p712
S'atmega328p'
p713
sS'f_cpu'
p714
S'16000000L'
p715
sS'variant'
p716
S'eightanaloginputs'
p717
ssS'name'
p718
S'Arduino BT w/ ATmega328'
p719
sg139
S'/Applications/Arduino.app/Contents/Resources/Java/hardware/arduino'
p720
saa(lp721
S'bt'
p722
a(dp723
S'bootloader'
p724
(dp725
S'extended_fuses'
p726
S'0x00'
p727
sS'high_fuses'
p728
S'0xdd'
p729
sS'low_fuses'
p730
S'0xff'
p731
sS'lock_bits'
p732
S'0x0F'
p733
sS'file'
p734
S'ATmegaBOOT_168.hex'
p735
sS'path'
p736
S'bt'
p737
sS'unlock_bits'
p738
S'0x3F'
p739
ssS'upload'
p740
(dp741
S'speed'
p742
S'19200'
p743
sS'maximum_size'
p744
S'14336'
p745
sS'protocol'
p746
S'arduino'
p747
sS'disable_flushing'
p748
S'true'
p749
ssS'build'
p750
(dp751
S'core'
p752
S'arduino'
p753
sS'mcu'
p754
S'atmega168'
p755
sS'f_cpu'
p756
S'16000000L'
p757
sS'variant'
p758
S'eightanaloginputs'
p759
ssS'name'
p760
S'Arduino BT w/ ATmega168'
p761
sg139
S'/Applications/Arduino.app/Contents/Resources/Java/hardware/arduino'
p762
saa(lp763
S'LilyPadUSB'
p764
a(dp765
S'bootloader'
p766
(dp767
S'extended_fuses'
p768
S'0xce'
p769
sS'high_fuses'
p770
S'0xd8'
p771
sS'low_fuses'
p772
S'0xff'
p773
sS'lock_bits'
p774
S'0x2F'
p775
sS'file'
p776
S'Caterina-LilyPadUSB.hex'
p777
sS'path'
p778
S'caterina-LilyPadUSB'
p779
sS'unlock_bits'
p780
S'0x3F'
p781
ssS'upload'
p782
(dp783
S'speed'
p784
S'57600'
p785
sS'maximum_size'
p786
S'28672'
p787
sS'protocol'
p788
S'avr109'
p789
sS'disable_flushing'
p790
S'true'
p791
ssS'build'
p792
(dp793
S'core'
p794
S'arduino'
p795
sS'f_cpu'
p796
S'8000000L'
p797
sS'vid'
p798
S'0x1B4F'
p799
sS'pid'
p800
S'0x9208'
p801
sS'variant'
p802
S'leonardo'
p803
sS'mcu'
p804
S'atmega32u4'
p805
ssS'name'
p806
S'LilyPad Arduino USB'
p807
sg139
S'/Applications/Arduino.app/Contents/Resources/Java/hardware/arduino'
p808
saa(lp809
S'lilypad328'
p810
a(dp811
S'bootloader'
p812
(dp813
S'extended_fuses'
p814
S'0x05'
p815
sS'high_fuses'
p816
S'0xDA'
p817
sS'low_fuses'
p818
S'0xFF'
p819
sS'lock_bits'
p820
S'0x0F'
p821
sS'file'
p822
S'ATmegaBOOT_168_atmega328_pro_8MHz.hex'
p823
sS'path'
p824
S'atmega'
p825
sS'unlock_bits'
p826
S'0x3F'
p827
ssS'upload'
p828
(dp829
S'speed'
p830
S'57600'
p831
sS'maximum_size'
p832
S'30720'
p833
sS'protocol'
p834
S'arduino'
p835
ssS'build'
p836
(dp837
S'core'
p838
S'arduino'
p839
sS'mcu'
p840
S'atmega328p'
p841
sS'f_cpu'
p842
S'8000000L'
p843
sS'variant'
p844
S'standard'
p845
ssS'name'
p846
S'LilyPad Arduino w/ ATmega328'
p847
sg139
S'/Applications/Arduino.app/Contents/Resources/Java/hardware/arduino'
p848
saa(lp849
S'lilypad'
p850
a(dp851
S'bootloader'
p852
(dp853
S'extended_fuses'
p854
S'0x00'
p855
sS'high_fuses'
p856
S'0xdd'
p857
sS'low_fuses'
p858
S'0xe2'
p859
sS'lock_bits'
p860
S'0x0F'
p861
sS'file'
p862
S'LilyPadBOOT_168.hex'
p863
sS'path'
p864
S'lilypad'
p865
sS'unlock_bits'
p866
S'0x3F'
p867
ssS'upload'
p868
(dp869
S'speed'
p870
S'19200'
p871
sS'maximum_size'
p872
S'14336'
p873
sS'protocol'
p874
S'arduino'
p875
ssS'build'
p876
(dp877
S'core'
p878
S'arduino'
p879
sS'mcu'
p880
S'atmega168'
p881
sS'f_cpu'
p882
S'8000000L'
p883
sS'variant'
p884
S'standard'
p885
ssS'name'
p886
S'LilyPad Arduino w/ ATmega168'
p887
sg139
S'/Applications/Arduino.app/Contents/Resources/Java/hardware/arduino'
p888
saa(lp889
S'pro5v328'
p890
a(dp891
S'bootloader'
p892
(dp893
S'extended_fuses'
p894
S'0x05'
p895
sS'high_fuses'
p896
S'0xDA'
p897
sS'low_fuses'
p898
S'0xFF'
p899
sS'lock_bits'
p900
S'0x0F'
p901
sS'file'
p902
S'ATmegaBOOT_168_atmega328.hex'
p903
sS'path'
p904
S'atmega'
p905
sS'unlock_bits'
p906
S'0x3F'
p907
ssS'upload'
p908
(dp909
S'speed'
p910
S'57600'
p911
sS'maximum_size'
p912
S'30720'
p913
sS'protocol'
p914
S'arduino'
p915
ssS'build'
p916
(dp917
S'core'
p918
S'arduino'
p919
sS'mcu'
p920
S'atmega328p'
p921
sS'f_cpu'
p922
S'16000000L'
p923
sS'variant'
p924
S'standard'
p925
ssS'name'
p926
S'Arduino Pro or Pro Mini (5V, 16 MHz) w/ ATmega328'
p927
sg139
S'/Applications/Arduino.app/Contents/Resources/Java/hardware/arduino'
p928
saa(lp929
S'pro5v'
p930
a(dp931
S'bootloader'
p932
(dp933
S'extended_fuses'
p934
S'0x00'
p935
sS'high_fuses'
p936
S'0xdd'
p937
sS'low_fuses'
p938
S'0xff'
p939
sS'lock_bits'
p940
S'0x0F'
p941
sS'file'
p942
S'ATmegaBOOT_168_diecimila.hex'
p943
sS'path'
p944
S'atmega'
p945
sS'unlock_bits'
p946
S'0x3F'
p947
ssS'upload'
p948
(dp949
S'speed'
p950
S'19200'
p951
sS'maximum_size'
p952
S'14336'
p953
sS'protocol'
p954
S'arduino'
p955
ssS'build'
p956
(dp957
S'core'
p958
S'arduino'
p959
sS'mcu'
p960
S'atmega168'
p961
sS'f_cpu'
p962
S'16000000L'
p963
sS'variant'
p964
S'standard'
p965
ssS'name'
p966
S'Arduino Pro or Pro Mini (5V, 16 MHz) w/ ATmega168'
p967
sg139
S'/Applications/Arduino.app/Contents/Resources/Java/hardware/arduino'
p968
saa(lp969
S'pro328'
p970
a(dp971
S'bootloader'
p972
(dp973
S'extended_fuses'
p974
S'0x05'
p975
sS'high_fuses'
p976
S'0xDA'
p977
sS'low_fuses'
p978
S'0xFF'
p979
sS'lock_bits'
p980
S'0x0F'
p981
sS'file'
p982
S'ATmegaBOOT_168_atmega328_pro_8MHz.hex'
p983
sS'path'
p984
S'atmega'
p985
sS'unlock_bits'
p986
S'0x3F'
p987
ssS'upload'
p988
(dp989
S'speed'
p990
S'57600'
p991
sS'maximum_size'
p992
S'30720'
p993
sS'protocol'
p994
S'arduino'
p995
ssS'build'
p996
(dp997
S'core'
p998
S'arduino'
p999
sS'mcu'
p1000
S'atmega328p'
p1001
sS'f_cpu'
p1002
S'8000000L'
p1003
sS'variant'
p1004
S'standard'
p1005
ssS'name'
p1006
S'Arduino Pro or Pro Mini (3.3V, 8 MHz) w/ ATmega328'
p1007
sg139
S'/Applications/Arduino.app/Contents/Resources/Java/hardware/arduino'
p1008
saa(lp1009
S'pro'
p1010
a(dp1011
S'bootloader'
p1012
(dp1013
S'extended_fuses'
p1014
S'0x00'
p1015
sS'high_fuses'
p1016
S'0xdd'
p1017
sS'low_fuses'
p1018
S'0xc6'
p1019
sS'lock_bits'
p1020
S'0x0F'
p1021
sS'file'
p1022
S'ATmegaBOOT_168_pro_8MHz.hex'
p1023
sS'path'
p1024
S'atmega'
p1025
sS'unlock_bits'
p1026
S'0x3F'
p1027
ssS'upload'
p1028
(dp1029
S'speed'
p1030
S'19200'
p1031
sS'maximum_size'
p1032
S'14336'
p1033
sS'protocol'
p1034
S'arduino'
p1035
ssS'build'
p1036
(dp1037
S'core'
p1038
S'arduino'
p1039
sS'mcu'
p1040
S'atmega168'
p1041
sS'f_cpu'
p1042
S'8000000L'
p1043
sS'variant'
p1044
S'standard'
p1045
ssS'name'
p1046
S'Arduino Pro or Pro Mini (3.3V, 8 MHz) w/ ATmega168'
p1047
sg139
S'/Applications/Arduino.app/Contents/Resources/Java/hardware/arduino'
p1048
saa(lp1049
S'atmega168'
p1050
a(dp1051
S'bootloader'
p1052
(dp1053
S'extended_fuses'
p1054
S'0x00'
p1055
sS'high_fuses'
p1056
S'0xdd'
p1057
sS'low_fuses'
p1058
S'0xff'
p1059
sS'lock_bits'
p1060
S'0x0F'
p1061
sS'file'
p1062
S'ATmegaBOOT_168_ng.hex'
p1063
sS'path'
p1064
S'atmega'
p1065
sS'unlock_bits'
p1066
S'0x3F'
p1067
ssS'upload'
p1068
(dp1069
S'speed'
p1070
S'19200'
p1071
sS'maximum_size'
p1072
S'14336'
p1073
sS'protocol'
p1074
S'arduino'
p1075
ssS'build'
p1076
(dp1077
S'core'
p1078
S'arduino'
p1079
sS'mcu'
p1080
S'atmega168'
p1081
sS'f_cpu'
p1082
S'16000000L'
p1083
sS'variant'
p1084
S'standard'
p1085
ssS'name'
p1086
S'Arduino NG or older w/ ATmega168'
p1087
sg139
S'/Applications/Arduino.app/Contents/Resources/Java/hardware/arduino'
p1088
saa(lp1089
S'atmega8'
p1090
a(dp1091
S'bootloader'
p1092
(dp1093
S'high_fuses'
p1094
S'0xca'
p1095
sS'low_fuses'
p1096
S'0xdf'
p1097
sS'lock_bits'
p1098
S'0x0F'
p1099
sS'file'
p1100
S'ATmegaBOOT-prod-firmware-2009-11-07.hex'
p1101
sS'path'
p1102
S'atmega8'
p1103
sS'unlock_bits'
p1104
S'0x3F'
p1105
ssS'upload'
p1106
(dp1107
S'speed'
p1108
S'19200'
p1109
sS'maximum_size'
p1110
S'7168'
p1111
sS'protocol'
p1112
S'arduino'
p1113
ssS'build'
p1114
(dp1115
S'core'
p1116
S'arduino'
p1117
sS'mcu'
p1118
S'atmega8'
p1119
sS'f_cpu'
p1120
S'16000000L'
p1121
sS'variant'
p1122
S'standard'
p1123
ssS'name'
p1124
S'Arduino NG or older w/ ATmega8'
p1125
sg139
S'/Applications/Arduino.app/Contents/Resources/Java/hardware/arduino'
p1126
saa(lp1127
S'robotControl'
p1128
a(dp1129
S'bootloader'
p1130
(dp1131
S'extended_fuses'
p1132
S'0xcb'
p1133
sS'high_fuses'
p1134
S'0xd8'
p1135
sS'low_fuses'
p1136
S'0xff'
p1137
sS'lock_bits'
p1138
S'0x2F'
p1139
sS'file'
p1140
S'Caterina-Robot-Control.hex'
p1141
sS'path'
p1142
S'caterina-Arduino_Robot'
p1143
sS'unlock_bits'
p1144
S'0x3F'
p1145
ssS'upload'
p1146
(dp1147
S'speed'
p1148
S'57600'
p1149
sS'maximum_size'
p1150
S'28672'
p1151
sS'protocol'
p1152
S'avr109'
p1153
sS'disable_flushing'
p1154
S'true'
p1155
ssS'build'
p1156
(dp1157
S'core'
p1158
S'robot'
p1159
sS'f_cpu'
p1160
S'16000000L'
p1161
sS'vid'
p1162
S'0x2341'
p1163
sS'pid'
p1164
S'0x8038'
p1165
sS'variant'
p1166
S'robot_control'
p1167
sS'mcu'
p1168
S'atmega32u4'
p1169
ssS'name'
p1170
S'Arduino Robot Control'
p1171
sg139
S'/Applications/Arduino.app/Contents/Resources/Java/hardware/arduino'
p1172
saa(lp1173
S'robotMotor'
p1174
a(dp1175
S'bootloader'
p1176
(dp1177
S'extended_fuses'
p1178
S'0xcb'
p1179
sS'high_fuses'
p1180
S'0xd8'
p1181
sS'low_fuses'
p1182
S'0xff'
p1183
sS'lock_bits'
p1184
S'0x2F'
p1185
sS'file'
p1186
S'Caterina-Robot-Motor.hex'
p1187
sS'path'
p1188
S'caterina-Arduino_Robot'
p1189
sS'unlock_bits'
p1190
S'0x3F'
p1191
ssS'upload'
p1192
(dp1193
S'speed'
p1194
S'57600'
p1195
sS'maximum_size'
p1196
S'28672'
p1197
sS'protocol'
p1198
S'avr109'
p1199
sS'disable_flushing'
p1200
S'true'
p1201
ssS'build'
p1202
(dp1203
S'core'
p1204
S'robot'
p1205
sS'f_cpu'
p1206
S'16000000L'
p1207
sS'vid'
p1208
S'0x2341'
p1209
sS'pid'
p1210
S'0x8039'
p1211
sS'variant'
p1212
S'robot_motor'
p1213
sS'mcu'
p1214
S'atmega32u4'
p1215
ssS'name'
p1216
S'Arduino Robot Motor'
p1217
sg139
S'/Applications/Arduino.app/Contents/Resources/Java/hardware/arduino'
p1218
saatp1219
Rp1220
(dp1221
S'default'
p1222
S'uno'
p1223
sbtp1224
a(S'ldflags'
p1225
g2
(g3
g4
(lp1226
g6
aS'-Wl,-Os'
p1227
aS'-Wl,--gc-sections'
p1228
atp1229
Rp1230
tp1231
a.