(lp0
(S'cppflags'
p1
ccopy_reg
_reconstructor
p2
(cino.utils
SpaceList
p3
c__builtin__
list
p4
(lp5
S'-mmcu=atmega328p'
p6
aS'-DF_CPU=16000000L'
p7
aS'-DARDUINO=101'
p8
aS'-I/usr/share/arduino/hardware/arduino/cores/arduino'
p9
aS'-ffunction-sections'
p10
aS'-fdata-sections'
p11
aS'-g'
p12
aS'-Os'
p13
aS'-w'
p14
aS'-I/usr/share/arduino/hardware/arduino/variants/standard'
p15
aS'-I/usr/share/arduino/libraries/arduinoMaxbotix'
p16
aS'-I/usr/share/arduino/hardware/arduino/cores/arduino'
p17
atp18
Rp19
tp20
a(S'arduino_variants_dir'
p21
S'/usr/share/arduino/hardware/arduino/variants'
p22
tp23
a(S'version.txt'
p24
S'/usr/share/arduino/lib/version.txt'
p25
tp26
a(S'used_libs'
p27
(lp28
S'/usr/share/arduino/libraries/arduinoMaxbotix'
p29
aS'/usr/share/arduino/hardware/arduino/cores/arduino'
p30
atp31
a(S'cxx'
p32
S'/usr/bin/avr-g++'
p33
tp34
a(S'make'
p35
S'/usr/bin/make'
p36
tp37
a(S'build_dir'
p38
S'.build/uno'
p39
tp40
a(S'arduino_core_dir'
p41
g30
tp42
a(S'boards.txt'
p43
(lp44
S'/usr/share/arduino/hardware/arduino/boards.txt'
p45
atp46
a(S'cxxflags'
p47
g2
(g3
g4
(lp48
S'-fno-exceptions'
p49
atp50
Rp51
tp52
a(S'cc'
p53
S'/usr/bin/avr-gcc'
p54
tp55
a(S'deps'
p56
g2
(g3
g4
(lp57
S'.build/uno/src/dependencies.d'
p58
aS'.build/uno/arduino/dependencies.d'
p59
aS'.build/uno/arduinoMaxbotix/dependencies.d'
p60
atp61
Rp62
tp63
a(S'ar'
p64
S'/usr/bin/avr-ar'
p65
tp66
a(S'names'
p67
(dp68
S'cpp'
p69
S'%s.cpp'
p70
sS'obj'
p71
S'%s.o'
p72
sS'deps'
p73
S'%s.d'
p74
sS'lib'
p75
S'lib%s.a'
p76
stp77
a(S'cflags'
p78
g2
(g3
g4
(lp79
tp80
Rp81
tp82
a(S'arduino_libraries_dir'
p83
S'/usr/share/arduino/libraries'
p84
tp85
a(S'arduino_lib_version'
p86
g2
(cino.environment
Version
p87
c__builtin__
tuple
p88
(I1
I0
I1
tp89
tp90
Rp91
tp92
a(S'objcopy'
p93
S'/usr/bin/avr-objcopy'
p94
tp95
a(S'board_models'
p96
cino.environment
BoardModels
p97
((lp98
(lp99
S'uno'
p100
a(dp101
S'build'
p102
(dp103
S'core'
p104
S'arduino'
p105
sS'mcu'
p106
S'atmega328p'
p107
sS'f_cpu'
p108
S'16000000L'
p109
sS'variant'
p110
S'standard'
p111
ssS'bootloader'
p112
(dp113
S'extended_fuses'
p114
S'0x05'
p115
sS'high_fuses'
p116
S'0xde'
p117
sS'low_fuses'
p118
S'0xff'
p119
sS'lock_bits'
p120
S'0x0F'
p121
sS'file'
p122
S'optiboot_atmega328.hex'
p123
sS'path'
p124
S'optiboot'
p125
sS'unlock_bits'
p126
S'0x3F'
p127
ssS'upload'
p128
(dp129
S'speed'
p130
S'115200'
p131
sS'maximum_size'
p132
S'32256'
p133
sS'protocol'
p134
S'arduino'
p135
ssS'name'
p136
S'Arduino Uno'
p137
sS'_coredir'
p138
S'/usr/share/arduino/hardware/arduino'
p139
saa(lp140
S'atmega328'
p141
a(dp142
S'build'
p143
(dp144
S'core'
p145
S'arduino'
p146
sS'mcu'
p147
S'atmega328p'
p148
sS'f_cpu'
p149
S'16000000L'
p150
sS'variant'
p151
S'standard'
p152
ssS'bootloader'
p153
(dp154
S'extended_fuses'
p155
S'0x05'
p156
sS'high_fuses'
p157
S'0xDA'
p158
sS'low_fuses'
p159
S'0xFF'
p160
sS'lock_bits'
p161
S'0x0F'
p162
sS'file'
p163
S'ATmegaBOOT_168_atmega328.hex'
p164
sS'path'
p165
S'atmega'
p166
sS'unlock_bits'
p167
S'0x3F'
p168
ssS'upload'
p169
(dp170
S'speed'
p171
S'57600'
p172
sS'maximum_size'
p173
S'30720'
p174
sS'protocol'
p175
S'arduino'
p176
ssS'name'
p177
S'Arduino Duemilanove w/ ATmega328'
p178
sg138
S'/usr/share/arduino/hardware/arduino'
p179
saa(lp180
S'diecimila'
p181
a(dp182
S'build'
p183
(dp184
S'core'
p185
S'arduino'
p186
sS'mcu'
p187
S'atmega168'
p188
sS'f_cpu'
p189
S'16000000L'
p190
sS'variant'
p191
S'standard'
p192
ssS'bootloader'
p193
(dp194
S'extended_fuses'
p195
S'0x00'
p196
sS'high_fuses'
p197
S'0xdd'
p198
sS'low_fuses'
p199
S'0xff'
p200
sS'lock_bits'
p201
S'0x0F'
p202
sS'file'
p203
S'ATmegaBOOT_168_diecimila.hex'
p204
sS'path'
p205
S'atmega'
p206
sS'unlock_bits'
p207
S'0x3F'
p208
ssS'upload'
p209
(dp210
S'speed'
p211
S'19200'
p212
sS'maximum_size'
p213
S'14336'
p214
sS'protocol'
p215
S'arduino'
p216
ssS'name'
p217
S'Arduino Diecimila or Duemilanove w/ ATmega168'
p218
sg138
S'/usr/share/arduino/hardware/arduino'
p219
saa(lp220
S'nano328'
p221
a(dp222
S'build'
p223
(dp224
S'core'
p225
S'arduino'
p226
sS'mcu'
p227
S'atmega328p'
p228
sS'f_cpu'
p229
S'16000000L'
p230
sS'variant'
p231
S'eightanaloginputs'
p232
ssS'bootloader'
p233
(dp234
S'extended_fuses'
p235
S'0x05'
p236
sS'high_fuses'
p237
S'0xDA'
p238
sS'low_fuses'
p239
S'0xFF'
p240
sS'lock_bits'
p241
S'0x0F'
p242
sS'file'
p243
S'ATmegaBOOT_168_atmega328.hex'
p244
sS'path'
p245
S'atmega'
p246
sS'unlock_bits'
p247
S'0x3F'
p248
ssS'upload'
p249
(dp250
S'speed'
p251
S'57600'
p252
sS'maximum_size'
p253
S'30720'
p254
sS'protocol'
p255
S'arduino'
p256
ssS'name'
p257
S'Arduino Nano w/ ATmega328'
p258
sg138
S'/usr/share/arduino/hardware/arduino'
p259
saa(lp260
S'nano'
p261
a(dp262
S'build'
p263
(dp264
S'core'
p265
S'arduino'
p266
sS'mcu'
p267
S'atmega168'
p268
sS'f_cpu'
p269
S'16000000L'
p270
sS'variant'
p271
S'eightanaloginputs'
p272
ssS'bootloader'
p273
(dp274
S'extended_fuses'
p275
S'0x00'
p276
sS'high_fuses'
p277
S'0xdd'
p278
sS'low_fuses'
p279
S'0xff'
p280
sS'lock_bits'
p281
S'0x0F'
p282
sS'file'
p283
S'ATmegaBOOT_168_diecimila.hex'
p284
sS'path'
p285
S'atmega'
p286
sS'unlock_bits'
p287
S'0x3F'
p288
ssS'upload'
p289
(dp290
S'speed'
p291
S'19200'
p292
sS'maximum_size'
p293
S'14336'
p294
sS'protocol'
p295
S'arduino'
p296
ssS'name'
p297
S'Arduino Nano w/ ATmega168'
p298
sg138
S'/usr/share/arduino/hardware/arduino'
p299
saa(lp300
S'mega2560'
p301
a(dp302
S'build'
p303
(dp304
S'core'
p305
S'arduino'
p306
sS'mcu'
p307
S'atmega2560'
p308
sS'f_cpu'
p309
S'16000000L'
p310
sS'variant'
p311
S'mega'
p312
ssS'bootloader'
p313
(dp314
S'extended_fuses'
p315
S'0xFD'
p316
sS'high_fuses'
p317
S'0xD8'
p318
sS'low_fuses'
p319
S'0xFF'
p320
sS'lock_bits'
p321
S'0x0F'
p322
sS'file'
p323
S'stk500boot_v2_mega2560.hex'
p324
sS'path'
p325
S'stk500v2'
p326
sS'unlock_bits'
p327
S'0x3F'
p328
ssS'upload'
p329
(dp330
S'speed'
p331
S'115200'
p332
sS'maximum_size'
p333
S'258048'
p334
sS'protocol'
p335
S'stk500v2'
p336
ssS'name'
p337
S'Arduino Mega 2560 or Mega ADK'
p338
sg138
S'/usr/share/arduino/hardware/arduino'
p339
saa(lp340
S'mega'
p341
a(dp342
S'build'
p343
(dp344
S'core'
p345
S'arduino'
p346
sS'mcu'
p347
S'atmega1280'
p348
sS'f_cpu'
p349
S'16000000L'
p350
sS'variant'
p351
S'mega'
p352
ssS'bootloader'
p353
(dp354
S'extended_fuses'
p355
S'0xF5'
p356
sS'high_fuses'
p357
S'0xDA'
p358
sS'low_fuses'
p359
S'0xFF'
p360
sS'lock_bits'
p361
S'0x0F'
p362
sS'file'
p363
S'ATmegaBOOT_168_atmega1280.hex'
p364
sS'path'
p365
S'atmega'
p366
sS'unlock_bits'
p367
S'0x3F'
p368
ssS'upload'
p369
(dp370
S'speed'
p371
S'57600'
p372
sS'maximum_size'
p373
S'126976'
p374
sS'protocol'
p375
S'arduino'
p376
ssS'name'
p377
S'Arduino Mega (ATmega1280)'
p378
sg138
S'/usr/share/arduino/hardware/arduino'
p379
saa(lp380
S'leonardo'
p381
a(dp382
S'build'
p383
(dp384
S'core'
p385
S'arduino'
p386
sS'f_cpu'
p387
S'16000000L'
p388
sS'vid'
p389
S'0x2341'
p390
sS'pid'
p391
S'0x8036'
p392
sS'variant'
p393
S'leonardo'
p394
sS'mcu'
p395
S'atmega32u4'
p396
ssS'bootloader'
p397
(dp398
S'extended_fuses'
p399
S'0xcb'
p400
sS'high_fuses'
p401
S'0xd8'
p402
sS'low_fuses'
p403
S'0xff'
p404
sS'lock_bits'
p405
S'0x2F'
p406
sS'file'
p407
S'Caterina-Leonardo.hex'
p408
sS'path'
p409
S'caterina'
p410
sS'unlock_bits'
p411
S'0x3F'
p412
ssS'upload'
p413
(dp414
S'speed'
p415
S'57600'
p416
sS'maximum_size'
p417
S'28672'
p418
sS'protocol'
p419
S'avr109'
p420
sS'disable_flushing'
p421
S'true'
p422
ssS'name'
p423
S'Arduino Leonardo'
p424
sg138
S'/usr/share/arduino/hardware/arduino'
p425
saa(lp426
S'mini328'
p427
a(dp428
S'build'
p429
(dp430
S'core'
p431
S'arduino'
p432
sS'mcu'
p433
S'atmega328p'
p434
sS'f_cpu'
p435
S'16000000L'
p436
sS'variant'
p437
S'eightanaloginputs'
p438
ssS'bootloader'
p439
(dp440
S'extended_fuses'
p441
S'0x05'
p442
sS'high_fuses'
p443
S'0xd8'
p444
sS'low_fuses'
p445
S'0xff'
p446
sS'lock_bits'
p447
S'0x0F'
p448
sS'file'
p449
S'optiboot_atmega328-Mini.hex'
p450
sS'path'
p451
S'optiboot'
p452
sS'unlock_bits'
p453
S'0x3F'
p454
ssS'upload'
p455
(dp456
S'speed'
p457
S'115200'
p458
sS'maximum_size'
p459
S'28672'
p460
sS'protocol'
p461
S'arduino'
p462
ssS'name'
p463
S'Arduino Mini w/ ATmega328'
p464
sg138
S'/usr/share/arduino/hardware/arduino'
p465
saa(lp466
S'mini'
p467
a(dp468
S'build'
p469
(dp470
S'core'
p471
S'arduino'
p472
sS'mcu'
p473
S'atmega168'
p474
sS'f_cpu'
p475
S'16000000L'
p476
sS'variant'
p477
S'eightanaloginputs'
p478
ssS'bootloader'
p479
(dp480
S'extended_fuses'
p481
S'0x00'
p482
sS'high_fuses'
p483
S'0xdd'
p484
sS'low_fuses'
p485
S'0xff'
p486
sS'lock_bits'
p487
S'0x0F'
p488
sS'file'
p489
S'ATmegaBOOT_168_ng.hex'
p490
sS'path'
p491
S'atmega'
p492
sS'unlock_bits'
p493
S'0x3F'
p494
ssS'upload'
p495
(dp496
S'speed'
p497
S'19200'
p498
sS'maximum_size'
p499
S'14336'
p500
sS'protocol'
p501
S'arduino'
p502
ssS'name'
p503
S'Arduino Mini w/ ATmega168'
p504
sg138
S'/usr/share/arduino/hardware/arduino'
p505
saa(lp506
S'ethernet'
p507
a(dp508
S'build'
p509
(dp510
S'f_cpu'
p511
S'16000000L'
p512
sS'mcu'
p513
S'atmega328p'
p514
sS'variant'
p515
S'standard'
p516
sS'core'
p517
S'arduino'
p518
ssS'bootloader'
p519
(dp520
S'extended_fuses'
p521
S'0x05'
p522
sS'high_fuses'
p523
S'0xde'
p524
sS'low_fuses'
p525
S'0xff'
p526
sS'lock_bits'
p527
S'0x0F'
p528
sS'file'
p529
S'optiboot_atmega328.hex'
p530
sS'path'
p531
S'optiboot'
p532
sS'unlock_bits'
p533
S'0x3F'
p534
ssS'upload'
p535
(dp536
S'speed'
p537
S'115200'
p538
sS'maximum_size'
p539
S'32256'
p540
sS'protocol'
p541
S'arduino'
p542
ssS'name'
p543
S'Arduino Ethernet'
p544
sg138
S'/usr/share/arduino/hardware/arduino'
p545
saa(lp546
S'fio'
p547
a(dp548
S'build'
p549
(dp550
S'core'
p551
S'arduino'
p552
sS'mcu'
p553
S'atmega328p'
p554
sS'f_cpu'
p555
S'8000000L'
p556
sS'variant'
p557
S'eightanaloginputs'
p558
ssS'bootloader'
p559
(dp560
S'extended_fuses'
p561
S'0x05'
p562
sS'high_fuses'
p563
S'0xDA'
p564
sS'low_fuses'
p565
S'0xFF'
p566
sS'lock_bits'
p567
S'0x0F'
p568
sS'file'
p569
S'ATmegaBOOT_168_atmega328_pro_8MHz.hex'
p570
sS'path'
p571
S'arduino:atmega'
p572
sS'unlock_bits'
p573
S'0x3F'
p574
ssS'upload'
p575
(dp576
S'speed'
p577
S'57600'
p578
sS'maximum_size'
p579
S'30720'
p580
sS'protocol'
p581
S'arduino'
p582
ssS'name'
p583
S'Arduino Fio'
p584
sg138
S'/usr/share/arduino/hardware/arduino'
p585
saa(lp586
S'bt328'
p587
a(dp588
S'build'
p589
(dp590
S'core'
p591
S'arduino'
p592
sS'mcu'
p593
S'atmega328p'
p594
sS'f_cpu'
p595
S'16000000L'
p596
sS'variant'
p597
S'eightanaloginputs'
p598
ssS'bootloader'
p599
(dp600
S'extended_fuses'
p601
S'0x05'
p602
sS'high_fuses'
p603
S'0xd8'
p604
sS'low_fuses'
p605
S'0xff'
p606
sS'lock_bits'
p607
S'0x0F'
p608
sS'file'
p609
S'ATmegaBOOT_168_atmega328_bt.hex'
p610
sS'path'
p611
S'bt'
p612
sS'unlock_bits'
p613
S'0x3F'
p614
ssS'upload'
p615
(dp616
S'speed'
p617
S'19200'
p618
sS'maximum_size'
p619
S'28672'
p620
sS'protocol'
p621
S'arduino'
p622
sS'disable_flushing'
p623
S'true'
p624
ssS'name'
p625
S'Arduino BT w/ ATmega328'
p626
sg138
S'/usr/share/arduino/hardware/arduino'
p627
saa(lp628
S'bt'
p629
a(dp630
S'build'
p631
(dp632
S'core'
p633
S'arduino'
p634
sS'mcu'
p635
S'atmega168'
p636
sS'f_cpu'
p637
S'16000000L'
p638
sS'variant'
p639
S'eightanaloginputs'
p640
ssS'bootloader'
p641
(dp642
S'extended_fuses'
p643
S'0x00'
p644
sS'high_fuses'
p645
S'0xdd'
p646
sS'low_fuses'
p647
S'0xff'
p648
sS'lock_bits'
p649
S'0x0F'
p650
sS'file'
p651
S'ATmegaBOOT_168.hex'
p652
sS'path'
p653
S'bt'
p654
sS'unlock_bits'
p655
S'0x3F'
p656
ssS'upload'
p657
(dp658
S'speed'
p659
S'19200'
p660
sS'maximum_size'
p661
S'14336'
p662
sS'protocol'
p663
S'arduino'
p664
sS'disable_flushing'
p665
S'true'
p666
ssS'name'
p667
S'Arduino BT w/ ATmega168'
p668
sg138
S'/usr/share/arduino/hardware/arduino'
p669
saa(lp670
S'lilypad328'
p671
a(dp672
S'build'
p673
(dp674
S'core'
p675
S'arduino'
p676
sS'mcu'
p677
S'atmega328p'
p678
sS'f_cpu'
p679
S'8000000L'
p680
sS'variant'
p681
S'standard'
p682
ssS'bootloader'
p683
(dp684
S'extended_fuses'
p685
S'0x05'
p686
sS'high_fuses'
p687
S'0xDA'
p688
sS'low_fuses'
p689
S'0xFF'
p690
sS'lock_bits'
p691
S'0x0F'
p692
sS'file'
p693
S'ATmegaBOOT_168_atmega328_pro_8MHz.hex'
p694
sS'path'
p695
S'atmega'
p696
sS'unlock_bits'
p697
S'0x3F'
p698
ssS'upload'
p699
(dp700
S'speed'
p701
S'57600'
p702
sS'maximum_size'
p703
S'30720'
p704
sS'protocol'
p705
S'arduino'
p706
ssS'name'
p707
S'LilyPad Arduino w/ ATmega328'
p708
sg138
S'/usr/share/arduino/hardware/arduino'
p709
saa(lp710
S'lilypad'
p711
a(dp712
S'build'
p713
(dp714
S'core'
p715
S'arduino'
p716
sS'mcu'
p717
S'atmega168'
p718
sS'f_cpu'
p719
S'8000000L'
p720
sS'variant'
p721
S'standard'
p722
ssS'bootloader'
p723
(dp724
S'extended_fuses'
p725
S'0x00'
p726
sS'high_fuses'
p727
S'0xdd'
p728
sS'low_fuses'
p729
S'0xe2'
p730
sS'lock_bits'
p731
S'0x0F'
p732
sS'file'
p733
S'LilyPadBOOT_168.hex'
p734
sS'path'
p735
S'lilypad'
p736
sS'unlock_bits'
p737
S'0x3F'
p738
ssS'upload'
p739
(dp740
S'speed'
p741
S'19200'
p742
sS'maximum_size'
p743
S'14336'
p744
sS'protocol'
p745
S'arduino'
p746
ssS'name'
p747
S'LilyPad Arduino w/ ATmega168'
p748
sg138
S'/usr/share/arduino/hardware/arduino'
p749
saa(lp750
S'pro5v328'
p751
a(dp752
S'build'
p753
(dp754
S'core'
p755
S'arduino'
p756
sS'mcu'
p757
S'atmega328p'
p758
sS'f_cpu'
p759
S'16000000L'
p760
sS'variant'
p761
S'standard'
p762
ssS'bootloader'
p763
(dp764
S'extended_fuses'
p765
S'0x05'
p766
sS'high_fuses'
p767
S'0xDA'
p768
sS'low_fuses'
p769
S'0xFF'
p770
sS'lock_bits'
p771
S'0x0F'
p772
sS'file'
p773
S'ATmegaBOOT_168_atmega328.hex'
p774
sS'path'
p775
S'atmega'
p776
sS'unlock_bits'
p777
S'0x3F'
p778
ssS'upload'
p779
(dp780
S'speed'
p781
S'57600'
p782
sS'maximum_size'
p783
S'30720'
p784
sS'protocol'
p785
S'arduino'
p786
ssS'name'
p787
S'Arduino Pro or Pro Mini (5V, 16 MHz) w/ ATmega328'
p788
sg138
S'/usr/share/arduino/hardware/arduino'
p789
saa(lp790
S'pro5v'
p791
a(dp792
S'build'
p793
(dp794
S'core'
p795
S'arduino'
p796
sS'mcu'
p797
S'atmega168'
p798
sS'f_cpu'
p799
S'16000000L'
p800
sS'variant'
p801
S'standard'
p802
ssS'bootloader'
p803
(dp804
S'extended_fuses'
p805
S'0x00'
p806
sS'high_fuses'
p807
S'0xdd'
p808
sS'low_fuses'
p809
S'0xff'
p810
sS'lock_bits'
p811
S'0x0F'
p812
sS'file'
p813
S'ATmegaBOOT_168_diecimila.hex'
p814
sS'path'
p815
S'atmega'
p816
sS'unlock_bits'
p817
S'0x3F'
p818
ssS'upload'
p819
(dp820
S'speed'
p821
S'19200'
p822
sS'maximum_size'
p823
S'14336'
p824
sS'protocol'
p825
S'arduino'
p826
ssS'name'
p827
S'Arduino Pro or Pro Mini (5V, 16 MHz) w/ ATmega168'
p828
sg138
S'/usr/share/arduino/hardware/arduino'
p829
saa(lp830
S'pro328'
p831
a(dp832
S'build'
p833
(dp834
S'core'
p835
S'arduino'
p836
sS'mcu'
p837
S'atmega328p'
p838
sS'f_cpu'
p839
S'8000000L'
p840
sS'variant'
p841
S'standard'
p842
ssS'bootloader'
p843
(dp844
S'extended_fuses'
p845
S'0x05'
p846
sS'high_fuses'
p847
S'0xDA'
p848
sS'low_fuses'
p849
S'0xFF'
p850
sS'lock_bits'
p851
S'0x0F'
p852
sS'file'
p853
S'ATmegaBOOT_168_atmega328_pro_8MHz.hex'
p854
sS'path'
p855
S'atmega'
p856
sS'unlock_bits'
p857
S'0x3F'
p858
ssS'upload'
p859
(dp860
S'speed'
p861
S'57600'
p862
sS'maximum_size'
p863
S'30720'
p864
sS'protocol'
p865
S'arduino'
p866
ssS'name'
p867
S'Arduino Pro or Pro Mini (3.3V, 8 MHz) w/ ATmega328'
p868
sg138
S'/usr/share/arduino/hardware/arduino'
p869
saa(lp870
S'pro'
p871
a(dp872
S'build'
p873
(dp874
S'core'
p875
S'arduino'
p876
sS'mcu'
p877
S'atmega168'
p878
sS'f_cpu'
p879
S'8000000L'
p880
sS'variant'
p881
S'standard'
p882
ssS'bootloader'
p883
(dp884
S'extended_fuses'
p885
S'0x00'
p886
sS'high_fuses'
p887
S'0xdd'
p888
sS'low_fuses'
p889
S'0xc6'
p890
sS'lock_bits'
p891
S'0x0F'
p892
sS'file'
p893
S'ATmegaBOOT_168_pro_8MHz.hex'
p894
sS'path'
p895
S'atmega'
p896
sS'unlock_bits'
p897
S'0x3F'
p898
ssS'upload'
p899
(dp900
S'speed'
p901
S'19200'
p902
sS'maximum_size'
p903
S'14336'
p904
sS'protocol'
p905
S'arduino'
p906
ssS'name'
p907
S'Arduino Pro or Pro Mini (3.3V, 8 MHz) w/ ATmega168'
p908
sg138
S'/usr/share/arduino/hardware/arduino'
p909
saa(lp910
S'atmega168'
p911
a(dp912
S'build'
p913
(dp914
S'core'
p915
S'arduino'
p916
sS'mcu'
p917
S'atmega168'
p918
sS'f_cpu'
p919
S'16000000L'
p920
sS'variant'
p921
S'standard'
p922
ssS'bootloader'
p923
(dp924
S'extended_fuses'
p925
S'0x00'
p926
sS'high_fuses'
p927
S'0xdd'
p928
sS'low_fuses'
p929
S'0xff'
p930
sS'lock_bits'
p931
S'0x0F'
p932
sS'file'
p933
S'ATmegaBOOT_168_ng.hex'
p934
sS'path'
p935
S'atmega'
p936
sS'unlock_bits'
p937
S'0x3F'
p938
ssS'upload'
p939
(dp940
S'speed'
p941
S'19200'
p942
sS'maximum_size'
p943
S'14336'
p944
sS'protocol'
p945
S'arduino'
p946
ssS'name'
p947
S'Arduino NG or older w/ ATmega168'
p948
sg138
S'/usr/share/arduino/hardware/arduino'
p949
saa(lp950
S'atmega8'
p951
a(dp952
S'build'
p953
(dp954
S'core'
p955
S'arduino'
p956
sS'mcu'
p957
S'atmega8'
p958
sS'f_cpu'
p959
S'16000000L'
p960
sS'variant'
p961
S'standard'
p962
ssS'bootloader'
p963
(dp964
S'high_fuses'
p965
S'0xca'
p966
sS'low_fuses'
p967
S'0xdf'
p968
sS'lock_bits'
p969
S'0x0F'
p970
sS'file'
p971
S'ATmegaBOOT.hex'
p972
sS'path'
p973
S'atmega8'
p974
sS'unlock_bits'
p975
S'0x3F'
p976
ssS'upload'
p977
(dp978
S'speed'
p979
S'19200'
p980
sS'maximum_size'
p981
S'7168'
p982
sS'protocol'
p983
S'arduino'
p984
ssS'name'
p985
S'Arduino NG or older w/ ATmega8'
p986
sg138
S'/usr/share/arduino/hardware/arduino'
p987
saatp988
Rp989
(dp990
S'default'
p991
S'uno'
p992
sbtp993
a(S'ldflags'
p994
g2
(g3
g4
(lp995
g6
aS'-Wl,-Os'
p996
aS'-Wl,--gc-sections'
p997
atp998
Rp999
tp1000
a.