(lp0
(S'cppflags'
p1
ccopy_reg
_reconstructor
p2
(cino.utils
SpaceList
p3
c__builtin__
list
p4
(lp5
S'-mmcu=atmega32u4'
p6
aS'-DF_CPU=16000000L'
p7
aS'-DARDUINO=105'
p8
aS'-I/Applications/Arduino.app/Contents/Resources/Java/hardware/arduino/cores/arduino'
p9
aS'-ffunction-sections'
p10
aS'-fdata-sections'
p11
aS'-g'
p12
aS'-Os'
p13
aS'-w'
p14
aS'-DUSB_VID=0x2341'
p15
aS'-DUSB_PID=0x8037'
p16
aS'-I/Applications/Arduino.app/Contents/Resources/Java/hardware/arduino/variants/micro'
p17
aS'-Ilib/arduinoMaxbotix'
p18
aS'-Ilib/Base64'
p19
aS'-I/Applications/Arduino.app/Contents/Resources/Java/hardware/arduino/cores/arduino'
p20
aS'-I/Applications/Arduino.app/Contents/Resources/Java/hardware/arduino/cores/arduino/avr-libc'
p21
atp22
Rp23
tp24
a(S'cc'
p25
S'/Applications/Arduino.app/Contents/Resources/Java/hardware/tools/avr/bin/avr-gcc'
p26
tp27
a(S'build_dir'
p28
S'.build/micro'
p29
tp30
a(S'avrdude'
p31
S'/Applications/Arduino.app/Contents/Resources/Java/hardware/tools/avr/bin/avrdude'
p32
tp33
a(S'ar'
p34
S'/Applications/Arduino.app/Contents/Resources/Java/hardware/tools/avr/bin/avr-ar'
p35
tp36
a(S'names'
p37
(dp38
S'cpp'
p39
S'%s.cpp'
p40
sS'obj'
p41
S'%s.o'
p42
sS'deps'
p43
S'%s.d'
p44
sS'lib'
p45
S'lib%s.a'
p46
stp47
a(S'ldflags'
p48
g2
(g3
g4
(lp49
g6
aS'-Wl,-Os'
p50
aS'-Wl,--gc-sections'
p51
atp52
Rp53
tp54
a(S'arduino_lib_version'
p55
g2
(cino.environment
Version
p56
c__builtin__
tuple
p57
(I1
I0
I5
tp58
tp59
Rp60
tp61
a(S'objcopy'
p62
S'/Applications/Arduino.app/Contents/Resources/Java/hardware/tools/avr/bin/avr-objcopy'
p63
tp64
a(S'board_models'
p65
cino.environment
BoardModels
p66
((lp67
(lp68
S'uno'
p69
a(dp70
S'build'
p71
(dp72
S'core'
p73
S'arduino'
p74
sS'mcu'
p75
S'atmega328p'
p76
sS'f_cpu'
p77
S'16000000L'
p78
sS'variant'
p79
S'standard'
p80
ssS'bootloader'
p81
(dp82
S'extended_fuses'
p83
S'0x05'
p84
sS'high_fuses'
p85
S'0xde'
p86
sS'low_fuses'
p87
S'0xff'
p88
sS'lock_bits'
p89
S'0x0F'
p90
sS'file'
p91
S'optiboot_atmega328.hex'
p92
sS'path'
p93
S'optiboot'
p94
sS'unlock_bits'
p95
S'0x3F'
p96
ssS'upload'
p97
(dp98
S'speed'
p99
S'115200'
p100
sS'maximum_size'
p101
S'32256'
p102
sS'protocol'
p103
S'arduino'
p104
ssS'name'
p105
S'Arduino Uno'
p106
sS'_coredir'
p107
S'/Applications/Arduino.app/Contents/Resources/Java/hardware/arduino'
p108
saa(lp109
S'atmega328'
p110
a(dp111
S'build'
p112
(dp113
S'core'
p114
S'arduino'
p115
sS'mcu'
p116
S'atmega328p'
p117
sS'f_cpu'
p118
S'16000000L'
p119
sS'variant'
p120
S'standard'
p121
ssS'bootloader'
p122
(dp123
S'extended_fuses'
p124
S'0x05'
p125
sS'high_fuses'
p126
S'0xDA'
p127
sS'low_fuses'
p128
S'0xFF'
p129
sS'lock_bits'
p130
S'0x0F'
p131
sS'file'
p132
S'ATmegaBOOT_168_atmega328.hex'
p133
sS'path'
p134
S'atmega'
p135
sS'unlock_bits'
p136
S'0x3F'
p137
ssS'upload'
p138
(dp139
S'speed'
p140
S'57600'
p141
sS'maximum_size'
p142
S'30720'
p143
sS'protocol'
p144
S'arduino'
p145
ssS'name'
p146
S'Arduino Duemilanove w/ ATmega328'
p147
sg107
S'/Applications/Arduino.app/Contents/Resources/Java/hardware/arduino'
p148
saa(lp149
S'diecimila'
p150
a(dp151
S'build'
p152
(dp153
S'core'
p154
S'arduino'
p155
sS'mcu'
p156
S'atmega168'
p157
sS'f_cpu'
p158
S'16000000L'
p159
sS'variant'
p160
S'standard'
p161
ssS'bootloader'
p162
(dp163
S'extended_fuses'
p164
S'0x00'
p165
sS'high_fuses'
p166
S'0xdd'
p167
sS'low_fuses'
p168
S'0xff'
p169
sS'lock_bits'
p170
S'0x0F'
p171
sS'file'
p172
S'ATmegaBOOT_168_diecimila.hex'
p173
sS'path'
p174
S'atmega'
p175
sS'unlock_bits'
p176
S'0x3F'
p177
ssS'upload'
p178
(dp179
S'speed'
p180
S'19200'
p181
sS'maximum_size'
p182
S'14336'
p183
sS'protocol'
p184
S'arduino'
p185
ssS'name'
p186
S'Arduino Diecimila or Duemilanove w/ ATmega168'
p187
sg107
S'/Applications/Arduino.app/Contents/Resources/Java/hardware/arduino'
p188
saa(lp189
S'nano328'
p190
a(dp191
S'build'
p192
(dp193
S'core'
p194
S'arduino'
p195
sS'mcu'
p196
S'atmega328p'
p197
sS'f_cpu'
p198
S'16000000L'
p199
sS'variant'
p200
S'eightanaloginputs'
p201
ssS'bootloader'
p202
(dp203
S'extended_fuses'
p204
S'0x05'
p205
sS'high_fuses'
p206
S'0xDA'
p207
sS'low_fuses'
p208
S'0xFF'
p209
sS'lock_bits'
p210
S'0x0F'
p211
sS'file'
p212
S'ATmegaBOOT_168_atmega328.hex'
p213
sS'path'
p214
S'atmega'
p215
sS'unlock_bits'
p216
S'0x3F'
p217
ssS'upload'
p218
(dp219
S'speed'
p220
S'57600'
p221
sS'maximum_size'
p222
S'30720'
p223
sS'protocol'
p224
S'arduino'
p225
ssS'name'
p226
S'Arduino Nano w/ ATmega328'
p227
sg107
S'/Applications/Arduino.app/Contents/Resources/Java/hardware/arduino'
p228
saa(lp229
S'nano'
p230
a(dp231
S'build'
p232
(dp233
S'core'
p234
S'arduino'
p235
sS'mcu'
p236
S'atmega168'
p237
sS'f_cpu'
p238
S'16000000L'
p239
sS'variant'
p240
S'eightanaloginputs'
p241
ssS'bootloader'
p242
(dp243
S'extended_fuses'
p244
S'0x00'
p245
sS'high_fuses'
p246
S'0xdd'
p247
sS'low_fuses'
p248
S'0xff'
p249
sS'lock_bits'
p250
S'0x0F'
p251
sS'file'
p252
S'ATmegaBOOT_168_diecimila.hex'
p253
sS'path'
p254
S'atmega'
p255
sS'unlock_bits'
p256
S'0x3F'
p257
ssS'upload'
p258
(dp259
S'speed'
p260
S'19200'
p261
sS'maximum_size'
p262
S'14336'
p263
sS'protocol'
p264
S'arduino'
p265
ssS'name'
p266
S'Arduino Nano w/ ATmega168'
p267
sg107
S'/Applications/Arduino.app/Contents/Resources/Java/hardware/arduino'
p268
saa(lp269
S'mega2560'
p270
a(dp271
S'build'
p272
(dp273
S'core'
p274
S'arduino'
p275
sS'mcu'
p276
S'atmega2560'
p277
sS'f_cpu'
p278
S'16000000L'
p279
sS'variant'
p280
S'mega'
p281
ssS'bootloader'
p282
(dp283
S'extended_fuses'
p284
S'0xFD'
p285
sS'high_fuses'
p286
S'0xD8'
p287
sS'low_fuses'
p288
S'0xFF'
p289
sS'lock_bits'
p290
S'0x0F'
p291
sS'file'
p292
S'stk500boot_v2_mega2560.hex'
p293
sS'path'
p294
S'stk500v2'
p295
sS'unlock_bits'
p296
S'0x3F'
p297
ssS'upload'
p298
(dp299
S'speed'
p300
S'115200'
p301
sS'maximum_size'
p302
S'258048'
p303
sS'protocol'
p304
S'wiring'
p305
ssS'name'
p306
S'Arduino Mega 2560 or Mega ADK'
p307
sg107
S'/Applications/Arduino.app/Contents/Resources/Java/hardware/arduino'
p308
saa(lp309
S'mega'
p310
a(dp311
S'build'
p312
(dp313
S'core'
p314
S'arduino'
p315
sS'mcu'
p316
S'atmega1280'
p317
sS'f_cpu'
p318
S'16000000L'
p319
sS'variant'
p320
S'mega'
p321
ssS'bootloader'
p322
(dp323
S'extended_fuses'
p324
S'0xF5'
p325
sS'high_fuses'
p326
S'0xDA'
p327
sS'low_fuses'
p328
S'0xFF'
p329
sS'lock_bits'
p330
S'0x0F'
p331
sS'file'
p332
S'ATmegaBOOT_168_atmega1280.hex'
p333
sS'path'
p334
S'atmega'
p335
sS'unlock_bits'
p336
S'0x3F'
p337
ssS'upload'
p338
(dp339
S'speed'
p340
S'57600'
p341
sS'maximum_size'
p342
S'126976'
p343
sS'protocol'
p344
S'arduino'
p345
ssS'name'
p346
S'Arduino Mega (ATmega1280)'
p347
sg107
S'/Applications/Arduino.app/Contents/Resources/Java/hardware/arduino'
p348
saa(lp349
S'leonardo'
p350
a(dp351
S'build'
p352
(dp353
S'core'
p354
S'arduino'
p355
sS'f_cpu'
p356
S'16000000L'
p357
sS'vid'
p358
S'0x2341'
p359
sS'pid'
p360
S'0x8036'
p361
sS'variant'
p362
S'leonardo'
p363
sS'mcu'
p364
S'atmega32u4'
p365
ssS'bootloader'
p366
(dp367
S'extended_fuses'
p368
S'0xcb'
p369
sS'high_fuses'
p370
S'0xd8'
p371
sS'low_fuses'
p372
S'0xff'
p373
sS'lock_bits'
p374
S'0x2F'
p375
sS'file'
p376
S'Caterina-Leonardo.hex'
p377
sS'path'
p378
S'caterina'
p379
sS'unlock_bits'
p380
S'0x3F'
p381
ssS'upload'
p382
(dp383
S'speed'
p384
S'57600'
p385
sS'maximum_size'
p386
S'28672'
p387
sS'protocol'
p388
S'avr109'
p389
sS'disable_flushing'
p390
S'true'
p391
ssS'name'
p392
S'Arduino Leonardo'
p393
sg107
S'/Applications/Arduino.app/Contents/Resources/Java/hardware/arduino'
p394
saa(lp395
S'esplora'
p396
a(dp397
S'build'
p398
(dp399
S'core'
p400
S'arduino'
p401
sS'f_cpu'
p402
S'16000000L'
p403
sS'vid'
p404
S'0x2341'
p405
sS'pid'
p406
S'0x803C'
p407
sS'variant'
p408
S'leonardo'
p409
sS'mcu'
p410
S'atmega32u4'
p411
ssS'bootloader'
p412
(dp413
S'extended_fuses'
p414
S'0xcb'
p415
sS'high_fuses'
p416
S'0xd8'
p417
sS'low_fuses'
p418
S'0xff'
p419
sS'lock_bits'
p420
S'0x2F'
p421
sS'file'
p422
S'Caterina-Esplora.hex'
p423
sS'path'
p424
S'caterina'
p425
sS'unlock_bits'
p426
S'0x3F'
p427
ssS'upload'
p428
(dp429
S'speed'
p430
S'57600'
p431
sS'maximum_size'
p432
S'28672'
p433
sS'protocol'
p434
S'avr109'
p435
sS'disable_flushing'
p436
S'true'
p437
ssS'name'
p438
S'Arduino Esplora'
p439
sg107
S'/Applications/Arduino.app/Contents/Resources/Java/hardware/arduino'
p440
saa(lp441
S'micro'
p442
a(dp443
S'build'
p444
(dp445
S'core'
p446
S'arduino'
p447
sS'f_cpu'
p448
S'16000000L'
p449
sS'vid'
p450
S'0x2341'
p451
sS'pid'
p452
S'0x8037'
p453
sS'variant'
p454
S'micro'
p455
sS'mcu'
p456
S'atmega32u4'
p457
ssS'bootloader'
p458
(dp459
S'extended_fuses'
p460
S'0xcb'
p461
sS'high_fuses'
p462
S'0xd8'
p463
sS'low_fuses'
p464
S'0xff'
p465
sS'lock_bits'
p466
S'0x2F'
p467
sS'file'
p468
S'Caterina-Micro.hex'
p469
sS'path'
p470
S'caterina'
p471
sS'unlock_bits'
p472
S'0x3F'
p473
ssS'upload'
p474
(dp475
S'speed'
p476
S'57600'
p477
sS'maximum_size'
p478
S'28672'
p479
sS'protocol'
p480
S'avr109'
p481
sS'disable_flushing'
p482
S'true'
p483
ssS'name'
p484
S'Arduino Micro'
p485
sg107
S'/Applications/Arduino.app/Contents/Resources/Java/hardware/arduino'
p486
saa(lp487
S'mini328'
p488
a(dp489
S'build'
p490
(dp491
S'core'
p492
S'arduino'
p493
sS'mcu'
p494
S'atmega328p'
p495
sS'f_cpu'
p496
S'16000000L'
p497
sS'variant'
p498
S'eightanaloginputs'
p499
ssS'bootloader'
p500
(dp501
S'extended_fuses'
p502
S'0x05'
p503
sS'high_fuses'
p504
S'0xd8'
p505
sS'low_fuses'
p506
S'0xff'
p507
sS'lock_bits'
p508
S'0x0F'
p509
sS'file'
p510
S'optiboot_atmega328-Mini.hex'
p511
sS'path'
p512
S'optiboot'
p513
sS'unlock_bits'
p514
S'0x3F'
p515
ssS'upload'
p516
(dp517
S'speed'
p518
S'115200'
p519
sS'maximum_size'
p520
S'28672'
p521
sS'protocol'
p522
S'arduino'
p523
ssS'name'
p524
S'Arduino Mini w/ ATmega328'
p525
sg107
S'/Applications/Arduino.app/Contents/Resources/Java/hardware/arduino'
p526
saa(lp527
S'mini'
p528
a(dp529
S'build'
p530
(dp531
S'core'
p532
S'arduino'
p533
sS'mcu'
p534
S'atmega168'
p535
sS'f_cpu'
p536
S'16000000L'
p537
sS'variant'
p538
S'eightanaloginputs'
p539
ssS'bootloader'
p540
(dp541
S'extended_fuses'
p542
S'0x00'
p543
sS'high_fuses'
p544
S'0xdd'
p545
sS'low_fuses'
p546
S'0xff'
p547
sS'lock_bits'
p548
S'0x0F'
p549
sS'file'
p550
S'ATmegaBOOT_168_ng.hex'
p551
sS'path'
p552
S'atmega'
p553
sS'unlock_bits'
p554
S'0x3F'
p555
ssS'upload'
p556
(dp557
S'speed'
p558
S'19200'
p559
sS'maximum_size'
p560
S'14336'
p561
sS'protocol'
p562
S'arduino'
p563
ssS'name'
p564
S'Arduino Mini w/ ATmega168'
p565
sg107
S'/Applications/Arduino.app/Contents/Resources/Java/hardware/arduino'
p566
saa(lp567
S'ethernet'
p568
a(dp569
S'build'
p570
(dp571
S'f_cpu'
p572
S'16000000L'
p573
sS'mcu'
p574
S'atmega328p'
p575
sS'variant'
p576
S'standard'
p577
sS'core'
p578
S'arduino'
p579
ssS'bootloader'
p580
(dp581
S'extended_fuses'
p582
S'0x05'
p583
sS'high_fuses'
p584
S'0xde'
p585
sS'low_fuses'
p586
S'0xff'
p587
sS'lock_bits'
p588
S'0x0F'
p589
sS'file'
p590
S'optiboot_atmega328.hex'
p591
sS'path'
p592
S'optiboot'
p593
sS'unlock_bits'
p594
S'0x3F'
p595
ssS'upload'
p596
(dp597
S'speed'
p598
S'115200'
p599
sS'maximum_size'
p600
S'32256'
p601
sS'protocol'
p602
S'arduino'
p603
ssS'name'
p604
S'Arduino Ethernet'
p605
sg107
S'/Applications/Arduino.app/Contents/Resources/Java/hardware/arduino'
p606
saa(lp607
S'fio'
p608
a(dp609
S'build'
p610
(dp611
S'core'
p612
S'arduino'
p613
sS'mcu'
p614
S'atmega328p'
p615
sS'f_cpu'
p616
S'8000000L'
p617
sS'variant'
p618
S'eightanaloginputs'
p619
ssS'bootloader'
p620
(dp621
S'extended_fuses'
p622
S'0x05'
p623
sS'high_fuses'
p624
S'0xDA'
p625
sS'low_fuses'
p626
S'0xFF'
p627
sS'lock_bits'
p628
S'0x0F'
p629
sS'file'
p630
S'ATmegaBOOT_168_atmega328_pro_8MHz.hex'
p631
sS'path'
p632
S'arduino:atmega'
p633
sS'unlock_bits'
p634
S'0x3F'
p635
ssS'upload'
p636
(dp637
S'speed'
p638
S'57600'
p639
sS'maximum_size'
p640
S'30720'
p641
sS'protocol'
p642
S'arduino'
p643
ssS'name'
p644
S'Arduino Fio'
p645
sg107
S'/Applications/Arduino.app/Contents/Resources/Java/hardware/arduino'
p646
saa(lp647
S'bt328'
p648
a(dp649
S'build'
p650
(dp651
S'core'
p652
S'arduino'
p653
sS'mcu'
p654
S'atmega328p'
p655
sS'f_cpu'
p656
S'16000000L'
p657
sS'variant'
p658
S'eightanaloginputs'
p659
ssS'bootloader'
p660
(dp661
S'extended_fuses'
p662
S'0x05'
p663
sS'high_fuses'
p664
S'0xd8'
p665
sS'low_fuses'
p666
S'0xff'
p667
sS'lock_bits'
p668
S'0x0F'
p669
sS'file'
p670
S'ATmegaBOOT_168_atmega328_bt.hex'
p671
sS'path'
p672
S'bt'
p673
sS'unlock_bits'
p674
S'0x3F'
p675
ssS'upload'
p676
(dp677
S'speed'
p678
S'19200'
p679
sS'maximum_size'
p680
S'28672'
p681
sS'protocol'
p682
S'arduino'
p683
sS'disable_flushing'
p684
S'true'
p685
ssS'name'
p686
S'Arduino BT w/ ATmega328'
p687
sg107
S'/Applications/Arduino.app/Contents/Resources/Java/hardware/arduino'
p688
saa(lp689
S'bt'
p690
a(dp691
S'build'
p692
(dp693
S'core'
p694
S'arduino'
p695
sS'mcu'
p696
S'atmega168'
p697
sS'f_cpu'
p698
S'16000000L'
p699
sS'variant'
p700
S'eightanaloginputs'
p701
ssS'bootloader'
p702
(dp703
S'extended_fuses'
p704
S'0x00'
p705
sS'high_fuses'
p706
S'0xdd'
p707
sS'low_fuses'
p708
S'0xff'
p709
sS'lock_bits'
p710
S'0x0F'
p711
sS'file'
p712
S'ATmegaBOOT_168.hex'
p713
sS'path'
p714
S'bt'
p715
sS'unlock_bits'
p716
S'0x3F'
p717
ssS'upload'
p718
(dp719
S'speed'
p720
S'19200'
p721
sS'maximum_size'
p722
S'14336'
p723
sS'protocol'
p724
S'arduino'
p725
sS'disable_flushing'
p726
S'true'
p727
ssS'name'
p728
S'Arduino BT w/ ATmega168'
p729
sg107
S'/Applications/Arduino.app/Contents/Resources/Java/hardware/arduino'
p730
saa(lp731
S'LilyPadUSB'
p732
a(dp733
S'build'
p734
(dp735
S'core'
p736
S'arduino'
p737
sS'f_cpu'
p738
S'8000000L'
p739
sS'vid'
p740
S'0x1B4F'
p741
sS'pid'
p742
S'0x9208'
p743
sS'variant'
p744
S'leonardo'
p745
sS'mcu'
p746
S'atmega32u4'
p747
ssS'bootloader'
p748
(dp749
S'extended_fuses'
p750
S'0xce'
p751
sS'high_fuses'
p752
S'0xd8'
p753
sS'low_fuses'
p754
S'0xff'
p755
sS'lock_bits'
p756
S'0x2F'
p757
sS'file'
p758
S'Caterina-LilyPadUSB.hex'
p759
sS'path'
p760
S'caterina-LilyPadUSB'
p761
sS'unlock_bits'
p762
S'0x3F'
p763
ssS'upload'
p764
(dp765
S'speed'
p766
S'57600'
p767
sS'maximum_size'
p768
S'28672'
p769
sS'protocol'
p770
S'avr109'
p771
sS'disable_flushing'
p772
S'true'
p773
ssS'name'
p774
S'LilyPad Arduino USB'
p775
sg107
S'/Applications/Arduino.app/Contents/Resources/Java/hardware/arduino'
p776
saa(lp777
S'lilypad328'
p778
a(dp779
S'build'
p780
(dp781
S'core'
p782
S'arduino'
p783
sS'mcu'
p784
S'atmega328p'
p785
sS'f_cpu'
p786
S'8000000L'
p787
sS'variant'
p788
S'standard'
p789
ssS'bootloader'
p790
(dp791
S'extended_fuses'
p792
S'0x05'
p793
sS'high_fuses'
p794
S'0xDA'
p795
sS'low_fuses'
p796
S'0xFF'
p797
sS'lock_bits'
p798
S'0x0F'
p799
sS'file'
p800
S'ATmegaBOOT_168_atmega328_pro_8MHz.hex'
p801
sS'path'
p802
S'atmega'
p803
sS'unlock_bits'
p804
S'0x3F'
p805
ssS'upload'
p806
(dp807
S'speed'
p808
S'57600'
p809
sS'maximum_size'
p810
S'30720'
p811
sS'protocol'
p812
S'arduino'
p813
ssS'name'
p814
S'LilyPad Arduino w/ ATmega328'
p815
sg107
S'/Applications/Arduino.app/Contents/Resources/Java/hardware/arduino'
p816
saa(lp817
S'lilypad'
p818
a(dp819
S'build'
p820
(dp821
S'core'
p822
S'arduino'
p823
sS'mcu'
p824
S'atmega168'
p825
sS'f_cpu'
p826
S'8000000L'
p827
sS'variant'
p828
S'standard'
p829
ssS'bootloader'
p830
(dp831
S'extended_fuses'
p832
S'0x00'
p833
sS'high_fuses'
p834
S'0xdd'
p835
sS'low_fuses'
p836
S'0xe2'
p837
sS'lock_bits'
p838
S'0x0F'
p839
sS'file'
p840
S'LilyPadBOOT_168.hex'
p841
sS'path'
p842
S'lilypad'
p843
sS'unlock_bits'
p844
S'0x3F'
p845
ssS'upload'
p846
(dp847
S'speed'
p848
S'19200'
p849
sS'maximum_size'
p850
S'14336'
p851
sS'protocol'
p852
S'arduino'
p853
ssS'name'
p854
S'LilyPad Arduino w/ ATmega168'
p855
sg107
S'/Applications/Arduino.app/Contents/Resources/Java/hardware/arduino'
p856
saa(lp857
S'pro5v328'
p858
a(dp859
S'build'
p860
(dp861
S'core'
p862
S'arduino'
p863
sS'mcu'
p864
S'atmega328p'
p865
sS'f_cpu'
p866
S'16000000L'
p867
sS'variant'
p868
S'standard'
p869
ssS'bootloader'
p870
(dp871
S'extended_fuses'
p872
S'0x05'
p873
sS'high_fuses'
p874
S'0xDA'
p875
sS'low_fuses'
p876
S'0xFF'
p877
sS'lock_bits'
p878
S'0x0F'
p879
sS'file'
p880
S'ATmegaBOOT_168_atmega328.hex'
p881
sS'path'
p882
S'atmega'
p883
sS'unlock_bits'
p884
S'0x3F'
p885
ssS'upload'
p886
(dp887
S'speed'
p888
S'57600'
p889
sS'maximum_size'
p890
S'30720'
p891
sS'protocol'
p892
S'arduino'
p893
ssS'name'
p894
S'Arduino Pro or Pro Mini (5V, 16 MHz) w/ ATmega328'
p895
sg107
S'/Applications/Arduino.app/Contents/Resources/Java/hardware/arduino'
p896
saa(lp897
S'pro5v'
p898
a(dp899
S'build'
p900
(dp901
S'core'
p902
S'arduino'
p903
sS'mcu'
p904
S'atmega168'
p905
sS'f_cpu'
p906
S'16000000L'
p907
sS'variant'
p908
S'standard'
p909
ssS'bootloader'
p910
(dp911
S'extended_fuses'
p912
S'0x00'
p913
sS'high_fuses'
p914
S'0xdd'
p915
sS'low_fuses'
p916
S'0xff'
p917
sS'lock_bits'
p918
S'0x0F'
p919
sS'file'
p920
S'ATmegaBOOT_168_diecimila.hex'
p921
sS'path'
p922
S'atmega'
p923
sS'unlock_bits'
p924
S'0x3F'
p925
ssS'upload'
p926
(dp927
S'speed'
p928
S'19200'
p929
sS'maximum_size'
p930
S'14336'
p931
sS'protocol'
p932
S'arduino'
p933
ssS'name'
p934
S'Arduino Pro or Pro Mini (5V, 16 MHz) w/ ATmega168'
p935
sg107
S'/Applications/Arduino.app/Contents/Resources/Java/hardware/arduino'
p936
saa(lp937
S'pro328'
p938
a(dp939
S'build'
p940
(dp941
S'core'
p942
S'arduino'
p943
sS'mcu'
p944
S'atmega328p'
p945
sS'f_cpu'
p946
S'8000000L'
p947
sS'variant'
p948
S'standard'
p949
ssS'bootloader'
p950
(dp951
S'extended_fuses'
p952
S'0x05'
p953
sS'high_fuses'
p954
S'0xDA'
p955
sS'low_fuses'
p956
S'0xFF'
p957
sS'lock_bits'
p958
S'0x0F'
p959
sS'file'
p960
S'ATmegaBOOT_168_atmega328_pro_8MHz.hex'
p961
sS'path'
p962
S'atmega'
p963
sS'unlock_bits'
p964
S'0x3F'
p965
ssS'upload'
p966
(dp967
S'speed'
p968
S'57600'
p969
sS'maximum_size'
p970
S'30720'
p971
sS'protocol'
p972
S'arduino'
p973
ssS'name'
p974
S'Arduino Pro or Pro Mini (3.3V, 8 MHz) w/ ATmega328'
p975
sg107
S'/Applications/Arduino.app/Contents/Resources/Java/hardware/arduino'
p976
saa(lp977
S'pro'
p978
a(dp979
S'build'
p980
(dp981
S'core'
p982
S'arduino'
p983
sS'mcu'
p984
S'atmega168'
p985
sS'f_cpu'
p986
S'8000000L'
p987
sS'variant'
p988
S'standard'
p989
ssS'bootloader'
p990
(dp991
S'extended_fuses'
p992
S'0x00'
p993
sS'high_fuses'
p994
S'0xdd'
p995
sS'low_fuses'
p996
S'0xc6'
p997
sS'lock_bits'
p998
S'0x0F'
p999
sS'file'
p1000
S'ATmegaBOOT_168_pro_8MHz.hex'
p1001
sS'path'
p1002
S'atmega'
p1003
sS'unlock_bits'
p1004
S'0x3F'
p1005
ssS'upload'
p1006
(dp1007
S'speed'
p1008
S'19200'
p1009
sS'maximum_size'
p1010
S'14336'
p1011
sS'protocol'
p1012
S'arduino'
p1013
ssS'name'
p1014
S'Arduino Pro or Pro Mini (3.3V, 8 MHz) w/ ATmega168'
p1015
sg107
S'/Applications/Arduino.app/Contents/Resources/Java/hardware/arduino'
p1016
saa(lp1017
S'atmega168'
p1018
a(dp1019
S'build'
p1020
(dp1021
S'core'
p1022
S'arduino'
p1023
sS'mcu'
p1024
S'atmega168'
p1025
sS'f_cpu'
p1026
S'16000000L'
p1027
sS'variant'
p1028
S'standard'
p1029
ssS'bootloader'
p1030
(dp1031
S'extended_fuses'
p1032
S'0x00'
p1033
sS'high_fuses'
p1034
S'0xdd'
p1035
sS'low_fuses'
p1036
S'0xff'
p1037
sS'lock_bits'
p1038
S'0x0F'
p1039
sS'file'
p1040
S'ATmegaBOOT_168_ng.hex'
p1041
sS'path'
p1042
S'atmega'
p1043
sS'unlock_bits'
p1044
S'0x3F'
p1045
ssS'upload'
p1046
(dp1047
S'speed'
p1048
S'19200'
p1049
sS'maximum_size'
p1050
S'14336'
p1051
sS'protocol'
p1052
S'arduino'
p1053
ssS'name'
p1054
S'Arduino NG or older w/ ATmega168'
p1055
sg107
S'/Applications/Arduino.app/Contents/Resources/Java/hardware/arduino'
p1056
saa(lp1057
S'atmega8'
p1058
a(dp1059
S'build'
p1060
(dp1061
S'core'
p1062
S'arduino'
p1063
sS'mcu'
p1064
S'atmega8'
p1065
sS'f_cpu'
p1066
S'16000000L'
p1067
sS'variant'
p1068
S'standard'
p1069
ssS'bootloader'
p1070
(dp1071
S'high_fuses'
p1072
S'0xca'
p1073
sS'low_fuses'
p1074
S'0xdf'
p1075
sS'lock_bits'
p1076
S'0x0F'
p1077
sS'file'
p1078
S'ATmegaBOOT-prod-firmware-2009-11-07.hex'
p1079
sS'path'
p1080
S'atmega8'
p1081
sS'unlock_bits'
p1082
S'0x3F'
p1083
ssS'upload'
p1084
(dp1085
S'speed'
p1086
S'19200'
p1087
sS'maximum_size'
p1088
S'7168'
p1089
sS'protocol'
p1090
S'arduino'
p1091
ssS'name'
p1092
S'Arduino NG or older w/ ATmega8'
p1093
sg107
S'/Applications/Arduino.app/Contents/Resources/Java/hardware/arduino'
p1094
saa(lp1095
S'robotControl'
p1096
a(dp1097
S'build'
p1098
(dp1099
S'core'
p1100
S'robot'
p1101
sS'f_cpu'
p1102
S'16000000L'
p1103
sS'vid'
p1104
S'0x2341'
p1105
sS'pid'
p1106
S'0x8038'
p1107
sS'variant'
p1108
S'robot_control'
p1109
sS'mcu'
p1110
S'atmega32u4'
p1111
ssS'bootloader'
p1112
(dp1113
S'extended_fuses'
p1114
S'0xcb'
p1115
sS'high_fuses'
p1116
S'0xd8'
p1117
sS'low_fuses'
p1118
S'0xff'
p1119
sS'lock_bits'
p1120
S'0x2F'
p1121
sS'file'
p1122
S'Caterina-Robot-Control.hex'
p1123
sS'path'
p1124
S'caterina-Arduino_Robot'
p1125
sS'unlock_bits'
p1126
S'0x3F'
p1127
ssS'upload'
p1128
(dp1129
S'speed'
p1130
S'57600'
p1131
sS'maximum_size'
p1132
S'28672'
p1133
sS'protocol'
p1134
S'avr109'
p1135
sS'disable_flushing'
p1136
S'true'
p1137
ssS'name'
p1138
S'Arduino Robot Control'
p1139
sg107
S'/Applications/Arduino.app/Contents/Resources/Java/hardware/arduino'
p1140
saa(lp1141
S'robotMotor'
p1142
a(dp1143
S'build'
p1144
(dp1145
S'core'
p1146
S'robot'
p1147
sS'f_cpu'
p1148
S'16000000L'
p1149
sS'vid'
p1150
S'0x2341'
p1151
sS'pid'
p1152
S'0x8039'
p1153
sS'variant'
p1154
S'robot_motor'
p1155
sS'mcu'
p1156
S'atmega32u4'
p1157
ssS'bootloader'
p1158
(dp1159
S'extended_fuses'
p1160
S'0xcb'
p1161
sS'high_fuses'
p1162
S'0xd8'
p1163
sS'low_fuses'
p1164
S'0xff'
p1165
sS'lock_bits'
p1166
S'0x2F'
p1167
sS'file'
p1168
S'Caterina-Robot-Motor.hex'
p1169
sS'path'
p1170
S'caterina-Arduino_Robot'
p1171
sS'unlock_bits'
p1172
S'0x3F'
p1173
ssS'upload'
p1174
(dp1175
S'speed'
p1176
S'57600'
p1177
sS'maximum_size'
p1178
S'28672'
p1179
sS'protocol'
p1180
S'avr109'
p1181
sS'disable_flushing'
p1182
S'true'
p1183
ssS'name'
p1184
S'Arduino Robot Motor'
p1185
sg107
S'/Applications/Arduino.app/Contents/Resources/Java/hardware/arduino'
p1186
saatp1187
Rp1188
(dp1189
S'default'
p1190
S'uno'
p1191
sbtp1192
a(S'used_libs'
p1193
(lp1194
S'lib/arduinoMaxbotix'
p1195
aS'lib/Base64'
p1196
aS'/Applications/Arduino.app/Contents/Resources/Java/hardware/arduino/cores/arduino'
p1197
atp1198
a(S'make'
p1199
S'/Applications/Arduino.app/Contents/Resources/Java/hardware/tools/avr/bin/make'
p1200
tp1201
a(S'arduino_libraries_dir'
p1202
S'/Applications/Arduino.app/Contents/Resources/Java/libraries'
p1203
tp1204
a(S'cxx'
p1205
S'/Applications/Arduino.app/Contents/Resources/Java/hardware/tools/avr/bin/avr-g++'
p1206
tp1207
a(S'cflags'
p1208
g2
(g3
g4
(lp1209
tp1210
Rp1211
tp1212
a(S'cxxflags'
p1213
g2
(g3
g4
(lp1214
S'-fno-exceptions'
p1215
atp1216
Rp1217
tp1218
a(S'arduino_variants_dir'
p1219
S'/Applications/Arduino.app/Contents/Resources/Java/hardware/arduino/variants'
p1220
tp1221
a(S'stty'
p1222
S'/bin/stty'
p1223
tp1224
a(S'version.txt'
p1225
S'/Applications/Arduino.app/Contents/Resources/Java/lib/version.txt'
p1226
tp1227
a(S'arduino_core_dir'
p1228
g1197
tp1229
a(S'boards.txt'
p1230
(lp1231
S'/Applications/Arduino.app/Contents/Resources/Java/hardware/arduino/boards.txt'
p1232
atp1233
a(S'avrdude.conf'
p1234
S'/Applications/Arduino.app/Contents/Resources/Java/hardware/tools/avr/etc/avrdude.conf'
p1235
tp1236
a(S'deps'
p1237
g2
(g3
g4
(lp1238
S'.build/micro/src/dependencies.d'
p1239
aS'.build/micro/arduino/dependencies.d'
p1240
aS'.build/micro/arduinoMaxbotix/dependencies.d'
p1241
aS'.build/micro/Base64/dependencies.d'
p1242
atp1243
Rp1244
tp1245
a.